
spybot.elf:     file format elf32-avr

Sections:
Idx Name          Size      VMA       LMA       File off  Algn
  0 .text         000002b8  00000000  00000000  00000074  2**1
                  CONTENTS, ALLOC, LOAD, READONLY, CODE
  1 .data         00000014  00800060  000002b8  0000032c  2**0
                  CONTENTS, ALLOC, LOAD, DATA
  2 .debug_aranges 00000020  00000000  00000000  00000340  2**0
                  CONTENTS, READONLY, DEBUGGING
  3 .debug_pubnames 00000073  00000000  00000000  00000360  2**0
                  CONTENTS, READONLY, DEBUGGING
  4 .debug_info   000003be  00000000  00000000  000003d3  2**0
                  CONTENTS, READONLY, DEBUGGING
  5 .debug_abbrev 0000018d  00000000  00000000  00000791  2**0
                  CONTENTS, READONLY, DEBUGGING
  6 .debug_line   0000043c  00000000  00000000  0000091e  2**0
                  CONTENTS, READONLY, DEBUGGING
  7 .debug_frame  00000090  00000000  00000000  00000d5c  2**2
                  CONTENTS, READONLY, DEBUGGING
  8 .debug_str    000000f2  00000000  00000000  00000dec  2**0
                  CONTENTS, READONLY, DEBUGGING
  9 .debug_loc    000001d9  00000000  00000000  00000ede  2**0
                  CONTENTS, READONLY, DEBUGGING
 10 .debug_ranges 00000048  00000000  00000000  000010b7  2**0
                  CONTENTS, READONLY, DEBUGGING
Disassembly of section .text:

00000000 <__vectors>:
   0:	0c 94 2a 00 	jmp	0x54	; 0x54 <__ctors_end>
   4:	0c 94 47 00 	jmp	0x8e	; 0x8e <__bad_interrupt>
   8:	0c 94 47 00 	jmp	0x8e	; 0x8e <__bad_interrupt>
   c:	0c 94 47 00 	jmp	0x8e	; 0x8e <__bad_interrupt>
  10:	0c 94 47 00 	jmp	0x8e	; 0x8e <__bad_interrupt>
  14:	0c 94 47 00 	jmp	0x8e	; 0x8e <__bad_interrupt>
  18:	0c 94 47 00 	jmp	0x8e	; 0x8e <__bad_interrupt>
  1c:	0c 94 47 00 	jmp	0x8e	; 0x8e <__bad_interrupt>
  20:	0c 94 47 00 	jmp	0x8e	; 0x8e <__bad_interrupt>
  24:	0c 94 47 00 	jmp	0x8e	; 0x8e <__bad_interrupt>
  28:	0c 94 47 00 	jmp	0x8e	; 0x8e <__bad_interrupt>
  2c:	0c 94 47 00 	jmp	0x8e	; 0x8e <__bad_interrupt>
  30:	0c 94 47 00 	jmp	0x8e	; 0x8e <__bad_interrupt>
  34:	0c 94 47 00 	jmp	0x8e	; 0x8e <__bad_interrupt>
  38:	0c 94 47 00 	jmp	0x8e	; 0x8e <__bad_interrupt>
  3c:	0c 94 47 00 	jmp	0x8e	; 0x8e <__bad_interrupt>
  40:	0c 94 47 00 	jmp	0x8e	; 0x8e <__bad_interrupt>
  44:	0c 94 47 00 	jmp	0x8e	; 0x8e <__bad_interrupt>
  48:	0c 94 47 00 	jmp	0x8e	; 0x8e <__bad_interrupt>
  4c:	0c 94 47 00 	jmp	0x8e	; 0x8e <__bad_interrupt>
  50:	0c 94 47 00 	jmp	0x8e	; 0x8e <__bad_interrupt>

00000054 <__ctors_end>:
  54:	11 24       	eor	r1, r1
  56:	1f be       	out	0x3f, r1	; 63
  58:	cf e5       	ldi	r28, 0x5F	; 95
  5a:	d4 e0       	ldi	r29, 0x04	; 4
  5c:	de bf       	out	0x3e, r29	; 62
  5e:	cd bf       	out	0x3d, r28	; 61

00000060 <__do_copy_data>:
  60:	10 e0       	ldi	r17, 0x00	; 0
  62:	a0 e6       	ldi	r26, 0x60	; 96
  64:	b0 e0       	ldi	r27, 0x00	; 0
  66:	e8 eb       	ldi	r30, 0xB8	; 184
  68:	f2 e0       	ldi	r31, 0x02	; 2
  6a:	02 c0       	rjmp	.+4      	; 0x70 <.do_copy_data_start>

0000006c <.do_copy_data_loop>:
  6c:	05 90       	lpm	r0, Z+
  6e:	0d 92       	st	X+, r0

00000070 <.do_copy_data_start>:
  70:	a4 37       	cpi	r26, 0x74	; 116
  72:	b1 07       	cpc	r27, r17
  74:	d9 f7       	brne	.-10     	; 0x6c <.do_copy_data_loop>

00000076 <__do_clear_bss>:
  76:	10 e0       	ldi	r17, 0x00	; 0
  78:	a4 e7       	ldi	r26, 0x74	; 116
  7a:	b0 e0       	ldi	r27, 0x00	; 0
  7c:	01 c0       	rjmp	.+2      	; 0x80 <.do_clear_bss_start>

0000007e <.do_clear_bss_loop>:
  7e:	1d 92       	st	X+, r1

00000080 <.do_clear_bss_start>:
  80:	a4 37       	cpi	r26, 0x74	; 116
  82:	b1 07       	cpc	r27, r17
  84:	e1 f7       	brne	.-8      	; 0x7e <.do_clear_bss_loop>
  86:	0e 94 c7 00 	call	0x18e	; 0x18e <main>
  8a:	0c 94 5a 01 	jmp	0x2b4	; 0x2b4 <_exit>

0000008e <__bad_interrupt>:
  8e:	0c 94 00 00 	jmp	0	; 0x0 <__heap_end>

00000092 <adc_init>:
#define RS PC0
#define RW PC1
#define EN PC2

void adc_init()
{
  92:	87 b1       	in	r24, 0x07	; 7
  94:	80 6c       	ori	r24, 0xC0	; 192
  96:	87 b9       	out	0x07, r24	; 7
ADMUX|=(1<<REFS1)|(1<<REFS0);
ADCSRA|=(1<<ADPS2)|(1<<ADPS1)|(1<<ADPS0)|(1<<ADEN);
  98:	86 b1       	in	r24, 0x06	; 6
  9a:	87 68       	ori	r24, 0x87	; 135
  9c:	86 b9       	out	0x06, r24	; 6
}
  9e:	08 95       	ret

000000a0 <adc_read>:

unsigned int adc_read(unsigned char channel)
{
  a0:	87 b1       	in	r24, 0x07	; 7
  a2:	87 b9       	out	0x07, r24	; 7
channel&=0x00;
ADMUX|=channel;
ADCSRA|=(1<<ADSC);
  a4:	36 9a       	sbi	0x06, 6	; 6

while(!(ADCSRA&(1<<ADIF)));
  a6:	34 9b       	sbis	0x06, 4	; 6
  a8:	fe cf       	rjmp	.-4      	; 0xa6 <adc_read+0x6>
ADCSRA|=(1<<ADIF);
  aa:	34 9a       	sbi	0x06, 4	; 6

return(ADC);
  ac:	24 b1       	in	r18, 0x04	; 4
  ae:	35 b1       	in	r19, 0x05	; 5
}
  b0:	c9 01       	movw	r24, r18
  b2:	08 95       	ret

000000b4 <lcd_cmd>:

void lcd_cmd(unsigned char c)
{
  b4:	28 2f       	mov	r18, r24
  b6:	20 7f       	andi	r18, 0xF0	; 240
  b8:	25 bb       	out	0x15, r18	; 21
lcd=(c & 0xF0);
lcd&=~(1<<RS);  //RS=0
  ba:	a8 98       	cbi	0x15, 0	; 21
lcd&=~(1<<RW);  //RW=0
  bc:	a9 98       	cbi	0x15, 1	; 21
lcd|=(1<<EN);   //EN=1
  be:	aa 9a       	sbi	0x15, 2	; 21
    milliseconds can be achieved.
 */
void
_delay_loop_2(uint16_t __count)
{
	__asm__ volatile (
  c0:	20 e4       	ldi	r18, 0x40	; 64
  c2:	3c e9       	ldi	r19, 0x9C	; 156
  c4:	f9 01       	movw	r30, r18
  c6:	31 97       	sbiw	r30, 0x01	; 1
  c8:	f1 f7       	brne	.-4      	; 0xc6 <lcd_cmd+0x12>
_delay_ms(10);
lcd&=~(1<<EN);  //EN=0
  ca:	aa 98       	cbi	0x15, 2	; 21
lcd=((c<<4) & 0xF0);
  cc:	90 e0       	ldi	r25, 0x00	; 0
  ce:	44 e0       	ldi	r20, 0x04	; 4
  d0:	88 0f       	add	r24, r24
  d2:	99 1f       	adc	r25, r25
  d4:	4a 95       	dec	r20
  d6:	e1 f7       	brne	.-8      	; 0xd0 <lcd_cmd+0x1c>
  d8:	85 bb       	out	0x15, r24	; 21
lcd&=~(1<<RS);
  da:	a8 98       	cbi	0x15, 0	; 21
lcd&=~(1<<RW);
  dc:	a9 98       	cbi	0x15, 1	; 21
lcd|=(1<<EN);
  de:	aa 9a       	sbi	0x15, 2	; 21
  e0:	c9 01       	movw	r24, r18
  e2:	01 97       	sbiw	r24, 0x01	; 1
  e4:	f1 f7       	brne	.-4      	; 0xe2 <lcd_cmd+0x2e>
_delay_ms(10);
lcd&=~(1<<EN);
  e6:	aa 98       	cbi	0x15, 2	; 21
}
  e8:	08 95       	ret

000000ea <lcd_data>:

void lcd_data(unsigned char c)
{
  ea:	28 2f       	mov	r18, r24
  ec:	20 7f       	andi	r18, 0xF0	; 240
  ee:	25 bb       	out	0x15, r18	; 21
lcd=(c & 0xF0);
lcd|=(1<<RS);   //RS=1
  f0:	a8 9a       	sbi	0x15, 0	; 21
lcd&=~(1<<RW);  //RW=0
  f2:	a9 98       	cbi	0x15, 1	; 21
lcd|=(1<<EN);   //EN=1
  f4:	aa 9a       	sbi	0x15, 2	; 21
  f6:	20 e4       	ldi	r18, 0x40	; 64
  f8:	3c e9       	ldi	r19, 0x9C	; 156
  fa:	f9 01       	movw	r30, r18
  fc:	31 97       	sbiw	r30, 0x01	; 1
  fe:	f1 f7       	brne	.-4      	; 0xfc <lcd_data+0x12>
_delay_ms(10);
lcd&=~(1<<EN);  //EN=0
 100:	aa 98       	cbi	0x15, 2	; 21
lcd=((c<<4) & 0xF0);
 102:	90 e0       	ldi	r25, 0x00	; 0
 104:	54 e0       	ldi	r21, 0x04	; 4
 106:	88 0f       	add	r24, r24
 108:	99 1f       	adc	r25, r25
 10a:	5a 95       	dec	r21
 10c:	e1 f7       	brne	.-8      	; 0x106 <lcd_data+0x1c>
 10e:	85 bb       	out	0x15, r24	; 21
lcd|=(1<<RS);
 110:	a8 9a       	sbi	0x15, 0	; 21
lcd&=~(1<<RW);
 112:	a9 98       	cbi	0x15, 1	; 21
lcd|=(1<<EN);
 114:	aa 9a       	sbi	0x15, 2	; 21
 116:	c9 01       	movw	r24, r18
 118:	01 97       	sbiw	r24, 0x01	; 1
 11a:	f1 f7       	brne	.-4      	; 0x118 <lcd_data+0x2e>
_delay_ms(10);
lcd&=~(1<<EN);
 11c:	aa 98       	cbi	0x15, 2	; 21
}
 11e:	08 95       	ret

00000120 <lcd_init>:


void lcd_init()
{
 120:	82 e0       	ldi	r24, 0x02	; 2
 122:	0e 94 5a 00 	call	0xb4	; 0xb4 <lcd_cmd>
lcd_cmd(0x02);
lcd_cmd(0x28);
 126:	88 e2       	ldi	r24, 0x28	; 40
 128:	0e 94 5a 00 	call	0xb4	; 0xb4 <lcd_cmd>
lcd_cmd(0x06);
 12c:	86 e0       	ldi	r24, 0x06	; 6
 12e:	0e 94 5a 00 	call	0xb4	; 0xb4 <lcd_cmd>
lcd_cmd(0x0C);
 132:	8c e0       	ldi	r24, 0x0C	; 12
 134:	0e 94 5a 00 	call	0xb4	; 0xb4 <lcd_cmd>
}
 138:	08 95       	ret

0000013a <lcd_num>:

void lcd_num(int i)
{
 13a:	cf 93       	push	r28
 13c:	df 93       	push	r29
 13e:	ec 01       	movw	r28, r24
int d=0;
lcd_cmd(0x04);  //decreament cursor
 140:	84 e0       	ldi	r24, 0x04	; 4
 142:	0e 94 5a 00 	call	0xb4	; 0xb4 <lcd_cmd>
 146:	0e c0       	rjmp	.+28     	; 0x164 <lcd_num+0x2a>
while(i!=0)
{
d=i%10;
lcd_data(d+48);   //adding ASCII vslue of 0
 148:	ce 01       	movw	r24, r28
 14a:	6a e0       	ldi	r22, 0x0A	; 10
 14c:	70 e0       	ldi	r23, 0x00	; 0
 14e:	0e 94 33 01 	call	0x266	; 0x266 <__divmodhi4>
 152:	80 5d       	subi	r24, 0xD0	; 208
 154:	0e 94 75 00 	call	0xea	; 0xea <lcd_data>
i/=10;
 158:	ce 01       	movw	r24, r28
 15a:	6a e0       	ldi	r22, 0x0A	; 10
 15c:	70 e0       	ldi	r23, 0x00	; 0
 15e:	0e 94 33 01 	call	0x266	; 0x266 <__divmodhi4>
 162:	eb 01       	movw	r28, r22

void lcd_num(int i)
{
int d=0;
lcd_cmd(0x04);  //decreament cursor
while(i!=0)
 164:	20 97       	sbiw	r28, 0x00	; 0
 166:	81 f7       	brne	.-32     	; 0x148 <lcd_num+0xe>
{
d=i%10;
lcd_data(d+48);   //adding ASCII vslue of 0
i/=10;
}
lcd_cmd(0x06);  //increament cursor
 168:	86 e0       	ldi	r24, 0x06	; 6
 16a:	0e 94 5a 00 	call	0xb4	; 0xb4 <lcd_cmd>
}
 16e:	df 91       	pop	r29
 170:	cf 91       	pop	r28
 172:	08 95       	ret

00000174 <lcd_str>:

void lcd_str(unsigned char *str)
{
 174:	cf 93       	push	r28
 176:	df 93       	push	r29
 178:	ec 01       	movw	r28, r24
 17a:	03 c0       	rjmp	.+6      	; 0x182 <lcd_str+0xe>
while(*str)
lcd_data(*str++);
 17c:	21 96       	adiw	r28, 0x01	; 1
 17e:	0e 94 75 00 	call	0xea	; 0xea <lcd_data>
lcd_cmd(0x06);  //increament cursor
}

void lcd_str(unsigned char *str)
{
while(*str)
 182:	88 81       	ld	r24, Y
 184:	88 23       	and	r24, r24
 186:	d1 f7       	brne	.-12     	; 0x17c <lcd_str+0x8>
lcd_data(*str++);
}
 188:	df 91       	pop	r29
 18a:	cf 91       	pop	r28
 18c:	08 95       	ret

0000018e <main>:

void main()
{
 18e:	ef 92       	push	r14
 190:	ff 92       	push	r15
 192:	0f 93       	push	r16
 194:	1f 93       	push	r17
 196:	cf 93       	push	r28
 198:	df 93       	push	r29
DDRC=0xff;
 19a:	8f ef       	ldi	r24, 0xFF	; 255
 19c:	84 bb       	out	0x14, r24	; 20
DDRB=0xff;
 19e:	87 bb       	out	0x17, r24	; 23
DDRA=0x00;
 1a0:	1a ba       	out	0x1a, r1	; 26
lcd_init();
 1a2:	0e 94 90 00 	call	0x120	; 0x120 <lcd_init>
#define RW PC1
#define EN PC2

void adc_init()
{
ADMUX|=(1<<REFS1)|(1<<REFS0);
 1a6:	87 b1       	in	r24, 0x07	; 7
 1a8:	80 6c       	ori	r24, 0xC0	; 192
 1aa:	87 b9       	out	0x07, r24	; 7
ADCSRA|=(1<<ADPS2)|(1<<ADPS1)|(1<<ADPS0)|(1<<ADEN);
 1ac:	86 b1       	in	r24, 0x06	; 6
 1ae:	87 68       	ori	r24, 0x87	; 135
 1b0:	86 b9       	out	0x06, r24	; 6
else if(v>600)
{
lcd_cmd(0x01);
lcd_cmd(0x80);
lcd_str("stop");
PORTB=0b01000000;
 1b2:	70 e4       	ldi	r23, 0x40	; 64
 1b4:	e7 2e       	mov	r14, r23
PORTB=0b00000110;
 1b6:	16 e0       	ldi	r17, 0x06	; 6
 1b8:	c0 e9       	ldi	r28, 0x90	; 144
 1ba:	d1 e0       	ldi	r29, 0x01	; 1

else if(v<400)
{lcd_cmd(0x01);
lcd_cmd(0x80);
lcd_str("move");
PORTB=0b00100000;
 1bc:	60 e2       	ldi	r22, 0x20	; 32
 1be:	f6 2e       	mov	r15, r22

if(v>=400 && v<=600)
{lcd_cmd(0x01);
lcd_cmd(0x80);
lcd_str("slow down");
PORTB=0b00010000;
 1c0:	00 e1       	ldi	r16, 0x10	; 16
}

unsigned int adc_read(unsigned char channel)
{
channel&=0x00;
ADMUX|=channel;
 1c2:	87 b1       	in	r24, 0x07	; 7
 1c4:	87 b9       	out	0x07, r24	; 7
ADCSRA|=(1<<ADSC);
 1c6:	36 9a       	sbi	0x06, 6	; 6

while(!(ADCSRA&(1<<ADIF)));
 1c8:	34 9b       	sbis	0x06, 4	; 6
 1ca:	fe cf       	rjmp	.-4      	; 0x1c8 <main+0x3a>
ADCSRA|=(1<<ADIF);
 1cc:	34 9a       	sbi	0x06, 4	; 6

return(ADC);
 1ce:	24 b1       	in	r18, 0x04	; 4
 1d0:	35 b1       	in	r19, 0x05	; 5
int v;
while(1)
{
v=adc_read(1);

if(v>=400 && v<=600)
 1d2:	c9 01       	movw	r24, r18
 1d4:	80 59       	subi	r24, 0x90	; 144
 1d6:	91 40       	sbci	r25, 0x01	; 1
 1d8:	89 3c       	cpi	r24, 0xC9	; 201
 1da:	91 05       	cpc	r25, r1
 1dc:	a0 f4       	brcc	.+40     	; 0x206 <main+0x78>
{lcd_cmd(0x01);
 1de:	81 e0       	ldi	r24, 0x01	; 1
 1e0:	0e 94 5a 00 	call	0xb4	; 0xb4 <lcd_cmd>
lcd_cmd(0x80);
 1e4:	80 e8       	ldi	r24, 0x80	; 128
 1e6:	0e 94 5a 00 	call	0xb4	; 0xb4 <lcd_cmd>
lcd_str("slow down");
 1ea:	80 e6       	ldi	r24, 0x60	; 96
 1ec:	90 e0       	ldi	r25, 0x00	; 0
 1ee:	0e 94 ba 00 	call	0x174	; 0x174 <lcd_str>
PORTB=0b00010000;
 1f2:	08 bb       	out	0x18, r16	; 24
PORTB=0b00000110;
 1f4:	18 bb       	out	0x18, r17	; 24
 1f6:	80 e1       	ldi	r24, 0x10	; 16
 1f8:	97 e2       	ldi	r25, 0x27	; 39
 1fa:	fe 01       	movw	r30, r28
 1fc:	31 97       	sbiw	r30, 0x01	; 1
 1fe:	f1 f7       	brne	.-4      	; 0x1fc <main+0x6e>
		__ticks = (uint16_t) (__ms * 10.0);
		while(__ticks)
		{
			// wait 1/10 ms
			_delay_loop_2(((F_CPU) / 4e3) / 10);
			__ticks --;
 200:	01 97       	sbiw	r24, 0x01	; 1
		__ticks = 1;
	else if (__tmp > 65535)
	{
		//	__ticks = requested delay in 1/10 ms
		__ticks = (uint16_t) (__ms * 10.0);
		while(__ticks)
 202:	d9 f7       	brne	.-10     	; 0x1fa <main+0x6c>
 204:	de cf       	rjmp	.-68     	; 0x1c2 <main+0x34>
_delay_ms(1000);
}

else if(v<400)
 206:	81 e0       	ldi	r24, 0x01	; 1
 208:	20 39       	cpi	r18, 0x90	; 144
 20a:	38 07       	cpc	r19, r24
 20c:	a4 f4       	brge	.+40     	; 0x236 <main+0xa8>
{lcd_cmd(0x01);
 20e:	81 e0       	ldi	r24, 0x01	; 1
 210:	0e 94 5a 00 	call	0xb4	; 0xb4 <lcd_cmd>
lcd_cmd(0x80);
 214:	80 e8       	ldi	r24, 0x80	; 128
 216:	0e 94 5a 00 	call	0xb4	; 0xb4 <lcd_cmd>
lcd_str("move");
 21a:	8a e6       	ldi	r24, 0x6A	; 106
 21c:	90 e0       	ldi	r25, 0x00	; 0
 21e:	0e 94 ba 00 	call	0x174	; 0x174 <lcd_str>
PORTB=0b00100000;
 222:	f8 ba       	out	0x18, r15	; 24
PORTB=0b00000000;
 224:	18 ba       	out	0x18, r1	; 24
 226:	88 ee       	ldi	r24, 0xE8	; 232
 228:	93 e0       	ldi	r25, 0x03	; 3
 22a:	fe 01       	movw	r30, r28
 22c:	31 97       	sbiw	r30, 0x01	; 1
 22e:	f1 f7       	brne	.-4      	; 0x22c <main+0x9e>
		{
			// wait 1/10 ms
			_delay_loop_2(((F_CPU) / 4e3) / 10);
			__ticks --;
 230:	01 97       	sbiw	r24, 0x01	; 1
		__ticks = 1;
	else if (__tmp > 65535)
	{
		//	__ticks = requested delay in 1/10 ms
		__ticks = (uint16_t) (__ms * 10.0);
		while(__ticks)
 232:	d9 f7       	brne	.-10     	; 0x22a <main+0x9c>
 234:	c6 cf       	rjmp	.-116    	; 0x1c2 <main+0x34>
_delay_ms(100);}


else if(v>600)
 236:	29 55       	subi	r18, 0x59	; 89
 238:	32 40       	sbci	r19, 0x02	; 2
 23a:	0c f4       	brge	.+2      	; 0x23e <main+0xb0>
 23c:	c2 cf       	rjmp	.-124    	; 0x1c2 <main+0x34>
{
lcd_cmd(0x01);
 23e:	81 e0       	ldi	r24, 0x01	; 1
 240:	0e 94 5a 00 	call	0xb4	; 0xb4 <lcd_cmd>
lcd_cmd(0x80);
 244:	80 e8       	ldi	r24, 0x80	; 128
 246:	0e 94 5a 00 	call	0xb4	; 0xb4 <lcd_cmd>
lcd_str("stop");
 24a:	8f e6       	ldi	r24, 0x6F	; 111
 24c:	90 e0       	ldi	r25, 0x00	; 0
 24e:	0e 94 ba 00 	call	0x174	; 0x174 <lcd_str>
PORTB=0b01000000;
 252:	e8 ba       	out	0x18, r14	; 24
PORTB=0b00000110;
 254:	18 bb       	out	0x18, r17	; 24
 256:	88 ee       	ldi	r24, 0xE8	; 232
 258:	93 e0       	ldi	r25, 0x03	; 3
 25a:	fe 01       	movw	r30, r28
 25c:	31 97       	sbiw	r30, 0x01	; 1
 25e:	f1 f7       	brne	.-4      	; 0x25c <main+0xce>
		{
			// wait 1/10 ms
			_delay_loop_2(((F_CPU) / 4e3) / 10);
			__ticks --;
 260:	01 97       	sbiw	r24, 0x01	; 1
		__ticks = 1;
	else if (__tmp > 65535)
	{
		//	__ticks = requested delay in 1/10 ms
		__ticks = (uint16_t) (__ms * 10.0);
		while(__ticks)
 262:	d9 f7       	brne	.-10     	; 0x25a <main+0xcc>
 264:	ae cf       	rjmp	.-164    	; 0x1c2 <main+0x34>

00000266 <__divmodhi4>:
 266:	97 fb       	bst	r25, 7
 268:	09 2e       	mov	r0, r25
 26a:	07 26       	eor	r0, r23
 26c:	0a d0       	rcall	.+20     	; 0x282 <__divmodhi4_neg1>
 26e:	77 fd       	sbrc	r23, 7
 270:	04 d0       	rcall	.+8      	; 0x27a <__divmodhi4_neg2>
 272:	0c d0       	rcall	.+24     	; 0x28c <__udivmodhi4>
 274:	06 d0       	rcall	.+12     	; 0x282 <__divmodhi4_neg1>
 276:	00 20       	and	r0, r0
 278:	1a f4       	brpl	.+6      	; 0x280 <__divmodhi4_exit>

0000027a <__divmodhi4_neg2>:
 27a:	70 95       	com	r23
 27c:	61 95       	neg	r22
 27e:	7f 4f       	sbci	r23, 0xFF	; 255

00000280 <__divmodhi4_exit>:
 280:	08 95       	ret

00000282 <__divmodhi4_neg1>:
 282:	f6 f7       	brtc	.-4      	; 0x280 <__divmodhi4_exit>
 284:	90 95       	com	r25
 286:	81 95       	neg	r24
 288:	9f 4f       	sbci	r25, 0xFF	; 255
 28a:	08 95       	ret

0000028c <__udivmodhi4>:
 28c:	aa 1b       	sub	r26, r26
 28e:	bb 1b       	sub	r27, r27
 290:	51 e1       	ldi	r21, 0x11	; 17
 292:	07 c0       	rjmp	.+14     	; 0x2a2 <__udivmodhi4_ep>

00000294 <__udivmodhi4_loop>:
 294:	aa 1f       	adc	r26, r26
 296:	bb 1f       	adc	r27, r27
 298:	a6 17       	cp	r26, r22
 29a:	b7 07       	cpc	r27, r23
 29c:	10 f0       	brcs	.+4      	; 0x2a2 <__udivmodhi4_ep>
 29e:	a6 1b       	sub	r26, r22
 2a0:	b7 0b       	sbc	r27, r23

000002a2 <__udivmodhi4_ep>:
 2a2:	88 1f       	adc	r24, r24
 2a4:	99 1f       	adc	r25, r25
 2a6:	5a 95       	dec	r21
 2a8:	a9 f7       	brne	.-22     	; 0x294 <__udivmodhi4_loop>
 2aa:	80 95       	com	r24
 2ac:	90 95       	com	r25
 2ae:	bc 01       	movw	r22, r24
 2b0:	cd 01       	movw	r24, r26
 2b2:	08 95       	ret

000002b4 <_exit>:
 2b4:	f8 94       	cli

000002b6 <__stop_program>:
 2b6:	ff cf       	rjmp	.-2      	; 0x2b6 <__stop_program>
